; Function Attrs: mustprogress optsize uwtable
define internal noundef i32 @_ZZL30nanobind_init_test_ndarray_extRN8nanobind7module_EEN7Wrapper11tp_traverseEP7_objectPFiS4_PvES5_(ptr noundef %0, ptr noundef readonly captures(none) %1, ptr noundef %2) #0 align 2 personality ptr @__gxx_personality_v0 {
  %4 = alloca %"class.nanobind::object", align 8
  %5 = tail call noundef ptr @_ZN8nanobind6detail11nb_inst_ptrEP7_object(ptr noundef %0) #23
  call void @llvm.lifetime.start.p0(i64 8, ptr nonnull %4) #22
  tail call void @llvm.experimental.noalias.scope.decl(metadata !87)
  %6 = load ptr, ptr %5, align 8, !tbaa !90, !noalias !87
  %7 = tail call noundef ptr @_ZN8nanobind6detail14ndarray_exportEPNS0_14ndarray_handleEiNS_9rv_policyEPNS0_12cleanup_listE(ptr noundef %6, i32 noundef 0, i32 noundef 7, ptr noundef null) #23, !noalias !87
  store ptr %7, ptr %4, align 8, !alias.scope !87
  %8 = call noundef nonnull align 8 dereferenceable(8) ptr @_ZNKR8nanobind6handle7dec_refEv(ptr noundef nonnull align 8 dereferenceable(8) %4) #23
  call void @llvm.lifetime.end.p0(i64 8, ptr nonnull %4) #22
  %.not = icmp eq ptr %7, null
  br i1 %.not, label %11, label %9

9:                                                ; preds = %3
  %10 = call noundef i32 %1(ptr noundef nonnull %7, ptr noundef %2) #21
  %.not18 = icmp eq i32 %10, 0
  br i1 %.not18, label %11, label %17

11:                                               ; preds = %3, %9
  %12 = getelementptr inbounds nuw i8, ptr %0, i64 8
  %13 = load ptr, ptr %12, align 8, !tbaa !92
  %.not19 = icmp eq ptr %13, null
  br i1 %.not19, label %16, label %14

14:                                               ; preds = %11
  %15 = call noundef i32 %1(ptr noundef nonnull %13, ptr noundef %2) #21
  %.not20 = icmp eq i32 %15, 0
  br i1 %.not20, label %16, label %17

16:                                               ; preds = %14, %11
  br label %17

17:                                               ; preds = %9, %14, %16
  %.1 = phi i32 [ 0, %16 ], [ %15, %14 ], [ %10, %9 ]
  ret i32 %.1
}